target datalayout = "e-m:e-p270:32:32-p271:32:32-p272:64:64-i64:64-i128:128-f80:128-n8:16:32:64-S128"
target triple = "x86_64-pc-linux-gnu"

%struct.AVFilterLink = type { ptr, ptr, ptr, ptr, i32, i32, i32, i32, %struct.AVRational, i32, i32, i32, %struct.AVChannelLayout, %struct.AVRational, ptr, i32, %struct.AVFilterFormatsConfig, %struct.AVFilterFormatsConfig }
%struct.AVChannelLayout = type { i32, i32, %union.anon.1, ptr }
%union.anon.1 = type { i64 }
%struct.AVRational = type { i32, i32 }
%struct.AVFilterFormatsConfig = type { ptr, ptr, ptr, ptr, ptr }
%struct.AVFilterContext = type { ptr, ptr, ptr, ptr, ptr, i32, ptr, ptr, i32, ptr, ptr, i32, i32, ptr, ptr, ptr, ptr, i32, ptr, i32, i32 }
%struct.ADenormContext = type { ptr, double, double, i32, i64, [4 x ptr] }

@.str.3 = private unnamed_addr constant [30 x i8] c"Assertion %s failed at %s:%d\0A\00", align 1
@.str.4 = private unnamed_addr constant [2 x i8] c"0\00", align 1
@.str.5 = private unnamed_addr constant [25 x i8] c"libavfilter/af_adenorm.c\00", align 1

; Function Attrs: nounwind uwtable
define internal i32 @config_output(ptr noundef %0) #1 {
  %2 = alloca ptr, align 8
  %3 = alloca ptr, align 8
  %4 = alloca ptr, align 8
  store ptr %0, ptr %2, align 8, !tbaa !4
  call void @llvm.lifetime.start.p0(i64 8, ptr %3) #6
  %5 = load ptr, ptr %2, align 8, !tbaa !4
  %6 = getelementptr inbounds nuw %struct.AVFilterLink, ptr %5, i32 0, i32 0
  %7 = load ptr, ptr %6, align 8, !tbaa !62
  store ptr %7, ptr %3, align 8, !tbaa !23
  call void @llvm.lifetime.start.p0(i64 8, ptr %4) #6
  %8 = load ptr, ptr %3, align 8, !tbaa !23
  %9 = getelementptr inbounds nuw %struct.AVFilterContext, ptr %8, i32 0, i32 9
  %10 = load ptr, ptr %9, align 8, !tbaa !24
  store ptr %10, ptr %4, align 8, !tbaa !34
  %11 = load ptr, ptr %2, align 8, !tbaa !4
  %12 = getelementptr inbounds nuw %struct.AVFilterLink, ptr %11, i32 0, i32 5
  %13 = load i32, ptr %12, align 4, !tbaa !63
  switch i32 %13, label %40 [
    i32 8, label %14
    i32 9, label %27
  ]

14:                                               ; preds = %1
  %15 = load ptr, ptr %4, align 8, !tbaa !34
  %16 = getelementptr inbounds nuw %struct.ADenormContext, ptr %15, i32 0, i32 5
  %17 = getelementptr inbounds [4 x ptr], ptr %16, i64 0, i64 0
  store ptr @dc_denorm_fltp, ptr %17, align 8, !tbaa !52
  %18 = load ptr, ptr %4, align 8, !tbaa !34
  %19 = getelementptr inbounds nuw %struct.ADenormContext, ptr %18, i32 0, i32 5
  %20 = getelementptr inbounds [4 x ptr], ptr %19, i64 0, i64 1
  store ptr @ac_denorm_fltp, ptr %20, align 8, !tbaa !52
  %21 = load ptr, ptr %4, align 8, !tbaa !34
  %22 = getelementptr inbounds nuw %struct.ADenormContext, ptr %21, i32 0, i32 5
  %23 = getelementptr inbounds [4 x ptr], ptr %22, i64 0, i64 2
  store ptr @sq_denorm_fltp, ptr %23, align 8, !tbaa !52
  %24 = load ptr, ptr %4, align 8, !tbaa !34
  %25 = getelementptr inbounds nuw %struct.ADenormContext, ptr %24, i32 0, i32 5
  %26 = getelementptr inbounds [4 x ptr], ptr %25, i64 0, i64 3
  store ptr @ps_denorm_fltp, ptr %26, align 8, !tbaa !52
  br label %44

27:                                               ; preds = %1
  %28 = load ptr, ptr %4, align 8, !tbaa !34
  %29 = getelementptr inbounds nuw %struct.ADenormContext, ptr %28, i32 0, i32 5
  %30 = getelementptr inbounds [4 x ptr], ptr %29, i64 0, i64 0
  store ptr @dc_denorm_dblp, ptr %30, align 8, !tbaa !52
  %31 = load ptr, ptr %4, align 8, !tbaa !34
  %32 = getelementptr inbounds nuw %struct.ADenormContext, ptr %31, i32 0, i32 5
  %33 = getelementptr inbounds [4 x ptr], ptr %32, i64 0, i64 1
  store ptr @ac_denorm_dblp, ptr %33, align 8, !tbaa !52
  %34 = load ptr, ptr %4, align 8, !tbaa !34
  %35 = getelementptr inbounds nuw %struct.ADenormContext, ptr %34, i32 0, i32 5
  %36 = getelementptr inbounds [4 x ptr], ptr %35, i64 0, i64 2
  store ptr @sq_denorm_dblp, ptr %36, align 8, !tbaa !52
  %37 = load ptr, ptr %4, align 8, !tbaa !34
  %38 = getelementptr inbounds nuw %struct.ADenormContext, ptr %37, i32 0, i32 5
  %39 = getelementptr inbounds [4 x ptr], ptr %38, i64 0, i64 3
  store ptr @ps_denorm_dblp, ptr %39, align 8, !tbaa !52
  br label %44

40:                                               ; preds = %1
  br label %41

41:                                               ; preds = %40
  call void (ptr, i32, ptr, ...) @av_log(ptr noundef null, i32 noundef 0, ptr noundef @.str.3, ptr noundef @.str.4, ptr noundef @.str.5, i32 noundef 175)
  call void @abort() #8
  unreachable

42:                                               ; No predecessors!
  br label %43

43:                                               ; preds = %42
  br label %44

44:                                               ; preds = %43, %27, %14
  call void @llvm.lifetime.end.p0(i64 8, ptr %4) #6
  call void @llvm.lifetime.end.p0(i64 8, ptr %3) #6
  ret i32 0
}