; Function Attrs: nounwind uwtable
define internal noundef i32 @config_output(ptr noundef readonly captures(none) %0) #1 {
  %2 = load ptr, ptr %0, align 8, !tbaa !56
  %3 = getelementptr inbounds nuw i8, ptr %2, i64 72
  %4 = load ptr, ptr %3, align 8, !tbaa !21
  %5 = getelementptr inbounds nuw i8, ptr %0, i64 36
  %6 = load i32, ptr %5, align 4, !tbaa !57
  switch i32 %6, label %8 [
    i32 8, label %9
    i32 9, label %7
  ]

7:                                                ; preds = %1
  br label %9

8:                                                ; preds = %1
  tail call void (ptr, i32, ptr, ...) @av_log(ptr noundef null, i32 noundef 0, ptr noundef nonnull @.str.3, ptr noundef nonnull @.str.4, ptr noundef nonnull @.str.5, i32 noundef 175) #8
  tail call void @abort() #10
  unreachable

9:                                                ; preds = %1, %7
  %dc_denorm_dblp.sink = phi ptr [ @dc_denorm_dblp, %7 ], [ @dc_denorm_fltp, %1 ]
  %ac_denorm_dblp.sink = phi ptr [ @ac_denorm_dblp, %7 ], [ @ac_denorm_fltp, %1 ]
  %sq_denorm_dblp.sink = phi ptr [ @sq_denorm_dblp, %7 ], [ @sq_denorm_fltp, %1 ]
  %ps_denorm_dblp.sink = phi ptr [ @ps_denorm_dblp, %7 ], [ @ps_denorm_fltp, %1 ]
  %10 = getelementptr inbounds nuw i8, ptr %4, i64 40
  store ptr %dc_denorm_dblp.sink, ptr %10, align 8, !tbaa !51
  %11 = getelementptr inbounds nuw i8, ptr %4, i64 48
  store ptr %ac_denorm_dblp.sink, ptr %11, align 8, !tbaa !51
  %12 = getelementptr inbounds nuw i8, ptr %4, i64 56
  store ptr %sq_denorm_dblp.sink, ptr %12, align 8, !tbaa !51
  %13 = getelementptr inbounds nuw i8, ptr %4, i64 64
  store ptr %ps_denorm_dblp.sink, ptr %13, align 8, !tbaa !51
  ret i32 0
}